; Function Attrs: uwtable
define hidden void @_ZTv0_n40_NK2cv8tracking4impl21TrackerMedianFlowImpl5writeERNS_11FileStorageE(ptr noundef readonly captures(none) %0, ptr noundef nonnull align 8 dereferenceable(64) %1) unnamed_addr #4 align 2 {
  %3 = load ptr, ptr %0, align 8, !tbaa !18
  %4 = getelementptr inbounds i8, ptr %3, i64 -40
  %5 = load i64, ptr %4, align 8
  %6 = getelementptr inbounds i8, ptr %0, i64 %5
  %7 = getelementptr inbounds nuw i8, ptr %6, i64 64
  tail call void @_ZNK2cv6legacy8tracking17TrackerMedianFlow6Params5writeERNS_11FileStorageE(ptr noundef nonnull readonly align 8 dereferenceable(48) %7, ptr noundef nonnull align 8 dereferenceable(64) %1)
  ret void
}